target datalayout = "e-m:e-p270:32:32-p271:32:32-p272:64:64-i64:64-i128:128-f80:128-n8:16:32:64-S128"
target triple = "x86_64-pc-linux-gnu"

%struct.strvec = type { ptr, i64, i64 }
%struct.credential_capability = type { i8, [3 x i8] }
%struct.strbuf = type { i64, i64, ptr }
%struct.credential = type { %struct.string_list, %struct.strvec, %struct.strvec, %struct.strvec, i16, [2 x i8], %struct.credential_capability, %struct.credential_capability, ptr, ptr, ptr, ptr, ptr, ptr, ptr, i64, ptr }
%struct.string_list = type { ptr, i64, i64, i8, ptr }
%struct.urlmatch_config = type { %struct.string_list, %struct.url_info, ptr, ptr, ptr, ptr, ptr, ptr, ptr }
%struct.url_info = type { ptr, ptr, i64, i64, i64, i64, i64, i64, i64, i64, i64, i64, i64, i64 }

@.str.6 = private unnamed_addr constant [11 x i8] c"credential\00", align 1
@__const.credential_apply_config.url = private unnamed_addr constant %struct.strbuf { i64 0, i64 0, ptr @strbuf_slopbuf }, align 8
@.str.33 = private unnamed_addr constant [52 x i8] c"refusing to work with credential missing host field\00", align 1
@.str.34 = private unnamed_addr constant [56 x i8] c"refusing to work with credential missing protocol field\00", align 1
@.str.42 = private unnamed_addr constant [6 x i8] c"https\00", align 1
@.str.43 = private unnamed_addr constant [5 x i8] c"http\00", align 1

; Function Attrs: nounwind uwtable
define internal i32 @proto_is_http(ptr noundef %0) #0 {
  %2 = alloca i32, align 4
  %3 = alloca ptr, align 8
  store ptr %0, ptr %3, align 8, !tbaa !32
  %4 = load ptr, ptr %3, align 8, !tbaa !32
  %5 = icmp ne ptr %4, null
  br i1 %5, label %7, label %6

6:                                                ; preds = %1
  store i32 0, ptr %2, align 4
  br label %19

7:                                                ; preds = %1
  %8 = load ptr, ptr %3, align 8, !tbaa !32
  %9 = call i32 @strcmp(ptr noundef %8, ptr noundef @.str.42) #11
  %10 = icmp ne i32 %9, 0
  br i1 %10, label %11, label %16

11:                                               ; preds = %7
  %12 = load ptr, ptr %3, align 8, !tbaa !32
  %13 = call i32 @strcmp(ptr noundef %12, ptr noundef @.str.43) #11
  %14 = icmp ne i32 %13, 0
  %15 = xor i1 %14, true
  br label %16

16:                                               ; preds = %11, %7
  %17 = phi i1 [ true, %7 ], [ %15, %11 ]
  %18 = zext i1 %17 to i32
  store i32 %18, ptr %2, align 4
  br label %19

19:                                               ; preds = %16, %6
  %20 = load i32, ptr %2, align 4
  ret i32 %20
}

; Function Attrs: nounwind uwtable
define internal void @credential_apply_config(ptr noundef %0, ptr noundef %1) #0 {
  %3 = alloca ptr, align 8
  %4 = alloca ptr, align 8
  %5 = alloca ptr, align 8
  %6 = alloca %struct.urlmatch_config, align 8
  %7 = alloca %struct.strbuf, align 8
  %8 = alloca i32, align 4
  store ptr %0, ptr %3, align 8, !tbaa !47
  store ptr %1, ptr %4, align 8, !tbaa !4
  call void @llvm.lifetime.start.p0(i64 8, ptr %5) #10
  call void @llvm.lifetime.start.p0(i64 208, ptr %6) #10
  call void @llvm.memset.p0.i64(ptr align 8 %6, i8 0, i64 208, i1 false)
  %9 = getelementptr inbounds { { ptr, i64, i64, i8, [7 x i8], ptr }, %struct.url_info, ptr, ptr, ptr, ptr, ptr, ptr, ptr }, ptr %6, i32 0, i32 0
  %10 = getelementptr inbounds { ptr, i64, i64, i8, [7 x i8], ptr }, ptr %9, i32 0, i32 3
  store i8 1, ptr %10, align 8
  call void @llvm.lifetime.start.p0(i64 24, ptr %7) #10
  call void @llvm.memcpy.p0.p0.i64(ptr align 8 %7, ptr align 8 @__const.credential_apply_config.url, i64 24, i1 false)
  %11 = load ptr, ptr %4, align 8, !tbaa !4
  %12 = getelementptr inbounds nuw %struct.credential, ptr %11, i32 0, i32 12
  %13 = load ptr, ptr %12, align 8, !tbaa !19
  %14 = icmp ne ptr %13, null
  br i1 %14, label %17, label %15

15:                                               ; preds = %2
  %16 = call ptr @_(ptr noundef @.str.33)
  call void (ptr, ...) @die(ptr noundef %16) #13
  unreachable

17:                                               ; preds = %2
  %18 = load ptr, ptr %4, align 8, !tbaa !4
  %19 = getelementptr inbounds nuw %struct.credential, ptr %18, i32 0, i32 11
  %20 = load ptr, ptr %19, align 8, !tbaa !9
  %21 = icmp ne ptr %20, null
  br i1 %21, label %24, label %22

22:                                               ; preds = %17
  %23 = call ptr @_(ptr noundef @.str.34)
  call void (ptr, ...) @die(ptr noundef %23) #13
  unreachable

24:                                               ; preds = %17
  %25 = load ptr, ptr %4, align 8, !tbaa !4
  %26 = getelementptr inbounds nuw %struct.credential, ptr %25, i32 0, i32 4
  %27 = load i16, ptr %26, align 8
  %28 = lshr i16 %27, 3
  %29 = and i16 %28, 1
  %30 = zext i16 %29 to i32
  %31 = icmp ne i32 %30, 0
  br i1 %31, label %32, label %33

32:                                               ; preds = %24
  store i32 1, ptr %8, align 4
  br label %78

33:                                               ; preds = %24
  %34 = getelementptr inbounds nuw %struct.urlmatch_config, ptr %6, i32 0, i32 2
  store ptr @.str.6, ptr %34, align 8, !tbaa !54
  %35 = getelementptr inbounds nuw %struct.urlmatch_config, ptr %6, i32 0, i32 3
  store ptr null, ptr %35, align 8, !tbaa !57
  %36 = getelementptr inbounds nuw %struct.urlmatch_config, ptr %6, i32 0, i32 5
  store ptr @credential_config_callback, ptr %36, align 8, !tbaa !58
  %37 = getelementptr inbounds nuw %struct.urlmatch_config, ptr %6, i32 0, i32 6
  store ptr null, ptr %37, align 8, !tbaa !59
  %38 = getelementptr inbounds nuw %struct.urlmatch_config, ptr %6, i32 0, i32 7
  store ptr @select_all, ptr %38, align 8, !tbaa !60
  %39 = getelementptr inbounds nuw %struct.urlmatch_config, ptr %6, i32 0, i32 8
  store ptr @match_partial_url, ptr %39, align 8, !tbaa !61
  %40 = load ptr, ptr %4, align 8, !tbaa !4
  %41 = getelementptr inbounds nuw %struct.urlmatch_config, ptr %6, i32 0, i32 4
  store ptr %40, ptr %41, align 8, !tbaa !62
  %42 = load ptr, ptr %4, align 8, !tbaa !4
  call void @credential_format(ptr noundef %42, ptr noundef %7)
  %43 = getelementptr inbounds nuw %struct.strbuf, ptr %7, i32 0, i32 2
  %44 = load ptr, ptr %43, align 8, !tbaa !33
  %45 = getelementptr inbounds nuw %struct.urlmatch_config, ptr %6, i32 0, i32 1
  %46 = call ptr @url_normalize(ptr noundef %44, ptr noundef %45)
  store ptr %46, ptr %5, align 8, !tbaa !32
  %47 = load ptr, ptr %3, align 8, !tbaa !47
  call void @repo_config(ptr noundef %47, ptr noundef @urlmatch_config_entry, ptr noundef %6)
  %48 = getelementptr inbounds nuw %struct.urlmatch_config, ptr %6, i32 0, i32 0
  call void @string_list_clear(ptr noundef %48, i32 noundef 1)
  %49 = load ptr, ptr %5, align 8, !tbaa !32
  call void @free(ptr noundef %49) #10
  call void @urlmatch_config_release(ptr noundef %6)
  call void @strbuf_release(ptr noundef %7)
  %50 = load ptr, ptr %4, align 8, !tbaa !4
  %51 = getelementptr inbounds nuw %struct.credential, ptr %50, i32 0, i32 4
  %52 = load i16, ptr %51, align 8
  %53 = and i16 %52, -9
  %54 = or i16 %53, 8
  store i16 %54, ptr %51, align 8
  %55 = load ptr, ptr %4, align 8, !tbaa !4
  %56 = getelementptr inbounds nuw %struct.credential, ptr %55, i32 0, i32 4
  %57 = load i16, ptr %56, align 8
  %58 = lshr i16 %57, 6
  %59 = and i16 %58, 1
  %60 = zext i16 %59 to i32
  %61 = icmp ne i32 %60, 0
  br i1 %61, label %77, label %62

62:                                               ; preds = %33
  %63 = load ptr, ptr %4, align 8, !tbaa !4
  %64 = getelementptr inbounds nuw %struct.credential, ptr %63, i32 0, i32 11
  %65 = load ptr, ptr %64, align 8, !tbaa !9
  %66 = call i32 @proto_is_http(ptr noundef %65)
  %67 = icmp ne i32 %66, 0
  br i1 %67, label %68, label %77

68:                                               ; preds = %62
  br label %69

69:                                               ; preds = %68
  %70 = load ptr, ptr %4, align 8, !tbaa !4
  %71 = getelementptr inbounds nuw %struct.credential, ptr %70, i32 0, i32 13
  %72 = load ptr, ptr %71, align 8, !tbaa !20
  call void @free(ptr noundef %72) #10
  %73 = load ptr, ptr %4, align 8, !tbaa !4
  %74 = getelementptr inbounds nuw %struct.credential, ptr %73, i32 0, i32 13
  store ptr null, ptr %74, align 8, !tbaa !20
  br label %75

75:                                               ; preds = %69
  br label %76

76:                                               ; preds = %75
  br label %77

77:                                               ; preds = %76, %62, %33
  store i32 0, ptr %8, align 4
  br label %78

78:                                               ; preds = %77, %32
  call void @llvm.lifetime.end.p0(i64 24, ptr %7) #10
  call void @llvm.lifetime.end.p0(i64 208, ptr %6) #10
  call void @llvm.lifetime.end.p0(i64 8, ptr %5) #10
  %79 = load i32, ptr %8, align 4
  switch i32 %79, label %81 [
    i32 0, label %80
    i32 1, label %80
  ]

80:                                               ; preds = %78, %78
  ret void

81:                                               ; preds = %78
  unreachable
}