; Function Attrs: nounwind uwtable
define internal fastcc void @credential_apply_config(ptr noundef %0, ptr noundef %1) unnamed_addr #3 {
  %3 = alloca %struct.urlmatch_config, align 8
  %4 = alloca %struct.strbuf, align 8
  call void @llvm.lifetime.start.p0(i64 208, ptr nonnull %3) #19
  call void @llvm.memset.p0.i64(ptr noundef nonnull align 8 dereferenceable(208) %3, i8 0, i64 152, i1 false)
  %5 = getelementptr inbounds nuw i8, ptr %3, i64 24
  store i8 1, ptr %5, align 8
  call void @llvm.lifetime.start.p0(i64 24, ptr nonnull %4) #19
  call void @llvm.memcpy.p0.p0.i64(ptr noundef nonnull align 8 dereferenceable(24) %4, ptr noundef nonnull align 8 dereferenceable(24) @__const.credential_ask_one.prompt, i64 24, i1 false)
  %6 = getelementptr inbounds nuw i8, ptr %1, i64 160
  %7 = load ptr, ptr %6, align 8, !tbaa !19
  %.not = icmp eq ptr %7, null
  br i1 %.not, label %8, label %10

8:                                                ; preds = %2
  %9 = tail call fastcc ptr @_(ptr noundef nonnull @.str.33)
  tail call void (ptr, ...) @die(ptr noundef %9) #22
  unreachable

10:                                               ; preds = %2
  %11 = getelementptr inbounds nuw i8, ptr %1, i64 152
  %12 = load ptr, ptr %11, align 8, !tbaa !18
  %.not12 = icmp eq ptr %12, null
  br i1 %.not12, label %13, label %15

13:                                               ; preds = %10
  %14 = tail call fastcc ptr @_(ptr noundef nonnull @.str.34)
  tail call void (ptr, ...) @die(ptr noundef %14) #22
  unreachable

15:                                               ; preds = %10
  %16 = getelementptr inbounds nuw i8, ptr %1, i64 112
  %17 = load i16, ptr %16, align 8
  %18 = and i16 %17, 8
  %.not13 = icmp eq i16 %18, 0
  br i1 %.not13, label %19, label %proto_is_http.exit.thread

19:                                               ; preds = %15
  %20 = getelementptr inbounds nuw i8, ptr %3, i64 152
  store ptr @.str.6, ptr %20, align 8, !tbaa !45
  %21 = getelementptr inbounds nuw i8, ptr %3, i64 160
  store ptr null, ptr %21, align 8, !tbaa !48
  %22 = getelementptr inbounds nuw i8, ptr %3, i64 176
  store ptr @credential_config_callback, ptr %22, align 8, !tbaa !49
  %23 = getelementptr inbounds nuw i8, ptr %3, i64 184
  store ptr null, ptr %23, align 8, !tbaa !50
  %24 = getelementptr inbounds nuw i8, ptr %3, i64 192
  store ptr @select_all, ptr %24, align 8, !tbaa !51
  %25 = getelementptr inbounds nuw i8, ptr %3, i64 200
  store ptr @match_partial_url, ptr %25, align 8, !tbaa !52
  %26 = getelementptr inbounds nuw i8, ptr %3, i64 168
  store ptr %1, ptr %26, align 8, !tbaa !53
  call fastcc void @credential_format(ptr noundef nonnull %1, ptr noundef %4)
  %27 = getelementptr inbounds nuw i8, ptr %4, i64 16
  %28 = load ptr, ptr %27, align 8, !tbaa !24
  %29 = getelementptr inbounds nuw i8, ptr %3, i64 40
  %30 = call ptr @url_normalize(ptr noundef %28, ptr noundef nonnull %29) #19
  call void @repo_config(ptr noundef %0, ptr noundef nonnull @urlmatch_config_entry, ptr noundef nonnull %3) #19
  call void @string_list_clear(ptr noundef nonnull %3, i32 noundef 1) #19
  call void @free(ptr noundef %30) #19
  call void @urlmatch_config_release(ptr noundef nonnull %3) #19
  call void @strbuf_release(ptr noundef nonnull %4) #19
  %31 = load i16, ptr %16, align 8
  %32 = or i16 %31, 8
  store i16 %32, ptr %16, align 8
  %33 = and i16 %31, 64
  %.not14 = icmp eq i16 %33, 0
  br i1 %.not14, label %34, label %proto_is_http.exit.thread

34:                                               ; preds = %19
  %35 = load ptr, ptr %11, align 8, !tbaa !18
  %.not.i = icmp eq ptr %35, null
  br i1 %.not.i, label %proto_is_http.exit.thread, label %36

36:                                               ; preds = %34
  %37 = call i32 @strcmp(ptr noundef nonnull readonly dereferenceable(1) %35, ptr noundef nonnull dereferenceable(6) @.str.42) #20
  %.not4.i = icmp eq i32 %37, 0
  br i1 %.not4.i, label %proto_is_http.exit.thread18, label %proto_is_http.exit

proto_is_http.exit:                               ; preds = %36
  %38 = call i32 @strcmp(ptr noundef nonnull readonly dereferenceable(1) %35, ptr noundef nonnull dereferenceable(5) @.str.43) #20
  %.not5.i.not = icmp eq i32 %38, 0
  br i1 %.not5.i.not, label %proto_is_http.exit.thread18, label %proto_is_http.exit.thread

proto_is_http.exit.thread18:                      ; preds = %36, %proto_is_http.exit
  %39 = getelementptr inbounds nuw i8, ptr %1, i64 168
  %40 = load ptr, ptr %39, align 8, !tbaa !20
  call void @free(ptr noundef %40) #19
  store ptr null, ptr %39, align 8, !tbaa !20
  br label %proto_is_http.exit.thread

proto_is_http.exit.thread:                        ; preds = %34, %19, %proto_is_http.exit, %proto_is_http.exit.thread18, %15
  call void @llvm.lifetime.end.p0(i64 24, ptr nonnull %4) #19
  call void @llvm.lifetime.end.p0(i64 208, ptr nonnull %3) #19
  ret void
}